; ModuleID = '56/200.c'
source_filename = "56/200.c"
target datalayout = "e-m:e-p270:32:32-p271:32:32-p272:64:64-i64:64-f80:128-n8:16:32:64-S128"
target triple = "x86_64-pc-linux-gnu"

@.str = private unnamed_addr constant [4 x i8] c"%d\0A\00", align 1

; Function Attrs: noinline nounwind uwtable
define dso_local i32 @main() #0 {
  %1 = alloca i32, align 4
  %2 = alloca [4 x i32], align 16
  %3 = alloca i32, align 4
  %4 = alloca i32, align 4
  %5 = alloca i32, align 4
  store i32 0, i32* %1, align 4
  store i32 0, i32* %3, align 4
  br label %6

6:                                                ; preds = %14, %0
  %7 = load i32, i32* %3, align 4
  %8 = icmp sle i32 %7, 3
  br i1 %8, label %9, label %17

9:                                                ; preds = %6
  %10 = load i32, i32* %3, align 4
  %11 = sext i32 %10 to i64
  %12 = getelementptr inbounds [4 x i32], [4 x i32]* %2, i64 0, i64 %11
  %13 = call i32 (i8*, ...) @__isoc99_scanf(i8* getelementptr inbounds ([4 x i8], [4 x i8]* @.str, i64 0, i64 0), i32* %12)
  br label %14

14:                                               ; preds = %9
  %15 = load i32, i32* %3, align 4
  %16 = add nsw i32 %15, 1
  store i32 %16, i32* %3, align 4
  br label %6

17:                                               ; preds = %6
  store i32 0, i32* %3, align 4
  br label %18

18:                                               ; preds = %53, %17
  %19 = load i32, i32* %3, align 4
  %20 = icmp sle i32 %19, 3
  br i1 %20, label %21, label %56

21:                                               ; preds = %18
  %22 = load i32, i32* %3, align 4
  %23 = sext i32 %22 to i64
  %24 = getelementptr inbounds [4 x i32], [4 x i32]* %2, i64 0, i64 %23
  %25 = load i32, i32* %24, align 4
  store i32 %25, i32* %4, align 4
  %26 = load i32, i32* %4, align 4
  %27 = icmp sle i32 %26, 9
  br i1 %27, label %28, label %30

28:                                               ; preds = %21
  %29 = load i32, i32* %4, align 4
  store i32 %29, i32* %5, align 4
  br label %50

30:                                               ; preds = %21
  store i32 0, i32* %5, align 4
  br label %31

31:                                               ; preds = %43, %30
  %32 = load i32, i32* %4, align 4
  %33 = icmp sgt i32 %32, 9
  br i1 %33, label %34, label %46

34:                                               ; preds = %31
  %35 = load i32, i32* %5, align 4
  %36 = load i32, i32* %4, align 4
  %37 = add nsw i32 %35, %36
  %38 = load i32, i32* %4, align 4
  %39 = sdiv i32 %38, 10
  %40 = mul nsw i32 %39, 10
  %41 = sub nsw i32 %37, %40
  %42 = mul nsw i32 %41, 10
  store i32 %42, i32* %5, align 4
  br label %43

43:                                               ; preds = %34
  %44 = load i32, i32* %4, align 4
  %45 = sdiv i32 %44, 10
  store i32 %45, i32* %4, align 4
  br label %31

46:                                               ; preds = %31
  %47 = load i32, i32* %5, align 4
  %48 = load i32, i32* %4, align 4
  %49 = add nsw i32 %47, %48
  store i32 %49, i32* %5, align 4
  br label %50

50:                                               ; preds = %46, %28
  %51 = load i32, i32* %5, align 4
  %52 = call i32 (i8*, ...) @printf(i8* getelementptr inbounds ([4 x i8], [4 x i8]* @.str, i64 0, i64 0), i32 %51)
  br label %53

53:                                               ; preds = %50
  %54 = load i32, i32* %3, align 4
  %55 = add nsw i32 %54, 1
  store i32 %55, i32* %3, align 4
  br label %18

56:                                               ; preds = %18
  ret i32 0
}

declare dso_local i32 @__isoc99_scanf(i8*, ...) #1

declare dso_local i32 @printf(i8*, ...) #1


!llvm.module.flags = !{!0}
!llvm.ident = !{!1}

!0 = !{i32 1, !"wchar_size", i32 4}
!1 = !{!"clang version 10.0.0-4ubuntu1 "}
